target datalayout = "e-m:e-p270:32:32-p271:32:32-p272:64:64-i64:64-i128:128-f80:128-n8:16:32:64-S128"
target triple = "x86_64-pc-linux-gnu"

%struct.GetBitContext = type { ptr, ptr, i32, i32, i32 }

@ff_golomb_vlc_len = external constant [512 x i8], align 16
@ff_ue_golomb_vlc_code = external constant [512 x i8], align 16
@ff_log2_tab = external constant [256 x i8], align 16

; Function Attrs: alwaysinline nounwind willreturn memory(none) uwtable
define internal i32 @ff_log2_c(i32 noundef %0) #5 {
  %2 = alloca i32, align 4
  %3 = alloca i32, align 4
  store i32 %0, ptr %2, align 4, !tbaa !36
  call void @llvm.lifetime.start.p0(i64 4, ptr %3) #10
  store i32 0, ptr %3, align 4, !tbaa !36
  %4 = load i32, ptr %2, align 4, !tbaa !36
  %5 = and i32 %4, -65536
  %6 = icmp ne i32 %5, 0
  br i1 %6, label %7, label %12

7:                                                ; preds = %1
  %8 = load i32, ptr %2, align 4, !tbaa !36
  %9 = lshr i32 %8, 16
  store i32 %9, ptr %2, align 4, !tbaa !36
  %10 = load i32, ptr %3, align 4, !tbaa !36
  %11 = add nsw i32 %10, 16
  store i32 %11, ptr %3, align 4, !tbaa !36
  br label %12

12:                                               ; preds = %7, %1
  %13 = load i32, ptr %2, align 4, !tbaa !36
  %14 = and i32 %13, 65280
  %15 = icmp ne i32 %14, 0
  br i1 %15, label %16, label %21

16:                                               ; preds = %12
  %17 = load i32, ptr %2, align 4, !tbaa !36
  %18 = lshr i32 %17, 8
  store i32 %18, ptr %2, align 4, !tbaa !36
  %19 = load i32, ptr %3, align 4, !tbaa !36
  %20 = add nsw i32 %19, 8
  store i32 %20, ptr %3, align 4, !tbaa !36
  br label %21

21:                                               ; preds = %16, %12
  %22 = load i32, ptr %2, align 4, !tbaa !36
  %23 = zext i32 %22 to i64
  %24 = getelementptr inbounds nuw [256 x i8], ptr @ff_log2_tab, i64 0, i64 %23
  %25 = load i8, ptr %24, align 1, !tbaa !33
  %26 = zext i8 %25 to i32
  %27 = load i32, ptr %3, align 4, !tbaa !36
  %28 = add nsw i32 %27, %26
  store i32 %28, ptr %3, align 4, !tbaa !36
  %29 = load i32, ptr %3, align 4, !tbaa !36
  call void @llvm.lifetime.end.p0(i64 4, ptr %3) #10
  ret i32 %29
}

; Function Attrs: alwaysinline nounwind willreturn memory(none) uwtable
define internal i32 @av_bswap32(i32 noundef %0) #5 {
  %2 = alloca i32, align 4
  store i32 %0, ptr %2, align 4, !tbaa !36
  %3 = load i32, ptr %2, align 4, !tbaa !36
  %4 = shl i32 %3, 8
  %5 = and i32 %4, 65280
  %6 = load i32, ptr %2, align 4, !tbaa !36
  %7 = lshr i32 %6, 8
  %8 = and i32 %7, 255
  %9 = or i32 %5, %8
  %10 = shl i32 %9, 16
  %11 = load i32, ptr %2, align 4, !tbaa !36
  %12 = lshr i32 %11, 16
  %13 = shl i32 %12, 8
  %14 = and i32 %13, 65280
  %15 = load i32, ptr %2, align 4, !tbaa !36
  %16 = lshr i32 %15, 16
  %17 = lshr i32 %16, 8
  %18 = and i32 %17, 255
  %19 = or i32 %14, %18
  %20 = or i32 %10, %19
  ret i32 %20
}

; Function Attrs: inlinehint nounwind uwtable
define internal i32 @get_bits(ptr noundef %0, i32 noundef %1) #7 {
  %3 = alloca ptr, align 8
  %4 = alloca i32, align 4
  %5 = alloca i32, align 4
  %6 = alloca i32, align 4
  %7 = alloca i32, align 4
  %8 = alloca i32, align 4
  store ptr %0, ptr %3, align 8, !tbaa !79
  store i32 %1, ptr %4, align 4, !tbaa !36
  call void @llvm.lifetime.start.p0(i64 4, ptr %5) #10
  call void @llvm.lifetime.start.p0(i64 4, ptr %6) #10
  %9 = load ptr, ptr %3, align 8, !tbaa !79
  %10 = getelementptr inbounds nuw %struct.GetBitContext, ptr %9, i32 0, i32 2
  %11 = load i32, ptr %10, align 8, !tbaa !86
  store i32 %11, ptr %6, align 4, !tbaa !36
  call void @llvm.lifetime.start.p0(i64 4, ptr %7) #10
  call void @llvm.lifetime.start.p0(i64 4, ptr %8) #10
  %12 = load ptr, ptr %3, align 8, !tbaa !79
  %13 = getelementptr inbounds nuw %struct.GetBitContext, ptr %12, i32 0, i32 4
  %14 = load i32, ptr %13, align 8, !tbaa !84
  store i32 %14, ptr %8, align 4, !tbaa !36
  %15 = load ptr, ptr %3, align 8, !tbaa !79
  %16 = getelementptr inbounds nuw %struct.GetBitContext, ptr %15, i32 0, i32 0
  %17 = load ptr, ptr %16, align 8, !tbaa !81
  %18 = load i32, ptr %6, align 4, !tbaa !36
  %19 = lshr i32 %18, 3
  %20 = zext i32 %19 to i64
  %21 = getelementptr inbounds nuw i8, ptr %17, i64 %20
  %22 = load i32, ptr %21, align 1, !tbaa !33
  %23 = call i32 @av_bswap32(i32 noundef %22) #12
  %24 = load i32, ptr %6, align 4, !tbaa !36
  %25 = and i32 %24, 7
  %26 = shl i32 %23, %25
  %27 = lshr i32 %26, 0
  store i32 %27, ptr %7, align 4, !tbaa !36
  %28 = load i32, ptr %7, align 4, !tbaa !36
  %29 = load i32, ptr %4, align 4, !tbaa !36
  %30 = sub nsw i32 32, %29
  %31 = lshr i32 %28, %30
  store i32 %31, ptr %5, align 4, !tbaa !36
  %32 = load i32, ptr %8, align 4, !tbaa !36
  %33 = load i32, ptr %6, align 4, !tbaa !36
  %34 = load i32, ptr %4, align 4, !tbaa !36
  %35 = add i32 %33, %34
  %36 = icmp ugt i32 %32, %35
  br i1 %36, label %37, label %41

37:                                               ; preds = %2
  %38 = load i32, ptr %6, align 4, !tbaa !36
  %39 = load i32, ptr %4, align 4, !tbaa !36
  %40 = add i32 %38, %39
  br label %43

41:                                               ; preds = %2
  %42 = load i32, ptr %8, align 4, !tbaa !36
  br label %43

43:                                               ; preds = %41, %37
  %44 = phi i32 [ %40, %37 ], [ %42, %41 ]
  store i32 %44, ptr %6, align 4, !tbaa !36
  %45 = load i32, ptr %6, align 4, !tbaa !36
  %46 = load ptr, ptr %3, align 8, !tbaa !79
  %47 = getelementptr inbounds nuw %struct.GetBitContext, ptr %46, i32 0, i32 2
  store i32 %45, ptr %47, align 8, !tbaa !86
  %48 = load i32, ptr %5, align 4, !tbaa !36
  call void @llvm.lifetime.end.p0(i64 4, ptr %8) #10
  call void @llvm.lifetime.end.p0(i64 4, ptr %7) #10
  call void @llvm.lifetime.end.p0(i64 4, ptr %6) #10
  call void @llvm.lifetime.end.p0(i64 4, ptr %5) #10
  ret i32 %48
}

; Function Attrs: inlinehint nounwind uwtable
define internal i32 @get_ue_golomb(ptr noundef %0) #7 {
  %2 = alloca i32, align 4
  %3 = alloca ptr, align 8
  %4 = alloca i32, align 4
  %5 = alloca i32, align 4
  %6 = alloca i32, align 4
  %7 = alloca i32, align 4
  %8 = alloca i32, align 4
  %9 = alloca i32, align 4
  store ptr %0, ptr %3, align 8, !tbaa !79
  call void @llvm.lifetime.start.p0(i64 4, ptr %4) #10
  call void @llvm.lifetime.start.p0(i64 4, ptr %5) #10
  %10 = load ptr, ptr %3, align 8, !tbaa !79
  %11 = getelementptr inbounds nuw %struct.GetBitContext, ptr %10, i32 0, i32 2
  %12 = load i32, ptr %11, align 8, !tbaa !86
  store i32 %12, ptr %5, align 4, !tbaa !36
  call void @llvm.lifetime.start.p0(i64 4, ptr %6) #10
  call void @llvm.lifetime.start.p0(i64 4, ptr %7) #10
  %13 = load ptr, ptr %3, align 8, !tbaa !79
  %14 = getelementptr inbounds nuw %struct.GetBitContext, ptr %13, i32 0, i32 4
  %15 = load i32, ptr %14, align 8, !tbaa !84
  store i32 %15, ptr %7, align 4, !tbaa !36
  %16 = load ptr, ptr %3, align 8, !tbaa !79
  %17 = getelementptr inbounds nuw %struct.GetBitContext, ptr %16, i32 0, i32 0
  %18 = load ptr, ptr %17, align 8, !tbaa !81
  %19 = load i32, ptr %5, align 4, !tbaa !36
  %20 = lshr i32 %19, 3
  %21 = zext i32 %20 to i64
  %22 = getelementptr inbounds nuw i8, ptr %18, i64 %21
  %23 = load i32, ptr %22, align 1, !tbaa !33
  %24 = call i32 @av_bswap32(i32 noundef %23) #12
  %25 = load i32, ptr %5, align 4, !tbaa !36
  %26 = and i32 %25, 7
  %27 = shl i32 %24, %26
  %28 = lshr i32 %27, 0
  store i32 %28, ptr %6, align 4, !tbaa !36
  %29 = load i32, ptr %6, align 4, !tbaa !36
  store i32 %29, ptr %4, align 4, !tbaa !36
  %30 = load i32, ptr %4, align 4, !tbaa !36
  %31 = icmp uge i32 %30, 134217728
  br i1 %31, label %32, label %64

32:                                               ; preds = %1
  %33 = load i32, ptr %4, align 4, !tbaa !36
  %34 = lshr i32 %33, 23
  store i32 %34, ptr %4, align 4, !tbaa !36
  %35 = load i32, ptr %7, align 4, !tbaa !36
  %36 = load i32, ptr %5, align 4, !tbaa !36
  %37 = load i32, ptr %4, align 4, !tbaa !36
  %38 = zext i32 %37 to i64
  %39 = getelementptr inbounds nuw [512 x i8], ptr @ff_golomb_vlc_len, i64 0, i64 %38
  %40 = load i8, ptr %39, align 1, !tbaa !33
  %41 = zext i8 %40 to i32
  %42 = add i32 %36, %41
  %43 = icmp ugt i32 %35, %42
  br i1 %43, label %44, label %52

44:                                               ; preds = %32
  %45 = load i32, ptr %5, align 4, !tbaa !36
  %46 = load i32, ptr %4, align 4, !tbaa !36
  %47 = zext i32 %46 to i64
  %48 = getelementptr inbounds nuw [512 x i8], ptr @ff_golomb_vlc_len, i64 0, i64 %47
  %49 = load i8, ptr %48, align 1, !tbaa !33
  %50 = zext i8 %49 to i32
  %51 = add i32 %45, %50
  br label %54

52:                                               ; preds = %32
  %53 = load i32, ptr %7, align 4, !tbaa !36
  br label %54

54:                                               ; preds = %52, %44
  %55 = phi i32 [ %51, %44 ], [ %53, %52 ]
  store i32 %55, ptr %5, align 4, !tbaa !36
  %56 = load i32, ptr %5, align 4, !tbaa !36
  %57 = load ptr, ptr %3, align 8, !tbaa !79
  %58 = getelementptr inbounds nuw %struct.GetBitContext, ptr %57, i32 0, i32 2
  store i32 %56, ptr %58, align 8, !tbaa !86
  %59 = load i32, ptr %4, align 4, !tbaa !36
  %60 = zext i32 %59 to i64
  %61 = getelementptr inbounds nuw [512 x i8], ptr @ff_ue_golomb_vlc_code, i64 0, i64 %60
  %62 = load i8, ptr %61, align 1, !tbaa !33
  %63 = zext i8 %62 to i32
  store i32 %63, ptr %2, align 4
  store i32 1, ptr %8, align 4
  br label %98

64:                                               ; preds = %1
  call void @llvm.lifetime.start.p0(i64 4, ptr %9) #10
  %65 = load i32, ptr %4, align 4, !tbaa !36
  %66 = call i32 @ff_log2_c(i32 noundef %65) #12
  %67 = mul nsw i32 2, %66
  %68 = sub nsw i32 %67, 31
  store i32 %68, ptr %9, align 4, !tbaa !36
  %69 = load i32, ptr %7, align 4, !tbaa !36
  %70 = load i32, ptr %5, align 4, !tbaa !36
  %71 = load i32, ptr %9, align 4, !tbaa !36
  %72 = sub nsw i32 32, %71
  %73 = add i32 %70, %72
  %74 = icmp ugt i32 %69, %73
  br i1 %74, label %75, label %80

75:                                               ; preds = %64
  %76 = load i32, ptr %5, align 4, !tbaa !36
  %77 = load i32, ptr %9, align 4, !tbaa !36
  %78 = sub nsw i32 32, %77
  %79 = add i32 %76, %78
  br label %82

80:                                               ; preds = %64
  %81 = load i32, ptr %7, align 4, !tbaa !36
  br label %82

82:                                               ; preds = %80, %75
  %83 = phi i32 [ %79, %75 ], [ %81, %80 ]
  store i32 %83, ptr %5, align 4, !tbaa !36
  %84 = load i32, ptr %5, align 4, !tbaa !36
  %85 = load ptr, ptr %3, align 8, !tbaa !79
  %86 = getelementptr inbounds nuw %struct.GetBitContext, ptr %85, i32 0, i32 2
  store i32 %84, ptr %86, align 8, !tbaa !86
  %87 = load i32, ptr %9, align 4, !tbaa !36
  %88 = icmp slt i32 %87, 7
  br i1 %88, label %89, label %90

89:                                               ; preds = %82
  store i32 -1094995529, ptr %2, align 4
  store i32 1, ptr %8, align 4
  br label %97

90:                                               ; preds = %82
  %91 = load i32, ptr %9, align 4, !tbaa !36
  %92 = load i32, ptr %4, align 4, !tbaa !36
  %93 = lshr i32 %92, %91
  store i32 %93, ptr %4, align 4, !tbaa !36
  %94 = load i32, ptr %4, align 4, !tbaa !36
  %95 = add i32 %94, -1
  store i32 %95, ptr %4, align 4, !tbaa !36
  %96 = load i32, ptr %4, align 4, !tbaa !36
  store i32 %96, ptr %2, align 4
  store i32 1, ptr %8, align 4
  br label %97

97:                                               ; preds = %90, %89
  call void @llvm.lifetime.end.p0(i64 4, ptr %9) #10
  br label %98

98:                                               ; preds = %97, %54
  call void @llvm.lifetime.end.p0(i64 4, ptr %7) #10
  call void @llvm.lifetime.end.p0(i64 4, ptr %6) #10
  call void @llvm.lifetime.end.p0(i64 4, ptr %5) #10
  call void @llvm.lifetime.end.p0(i64 4, ptr %4) #10
  %99 = load i32, ptr %2, align 4
  ret i32 %99
}

; Function Attrs: inlinehint nounwind uwtable
define internal i32 @extend_code(ptr noundef %0, i32 noundef %1, i32 noundef %2, i32 noundef %3) #7 {
  %5 = alloca ptr, align 8
  %6 = alloca i32, align 4
  %7 = alloca i32, align 4
  %8 = alloca i32, align 4
  store ptr %0, ptr %5, align 8, !tbaa !79
  store i32 %1, ptr %6, align 4, !tbaa !36
  store i32 %2, ptr %7, align 4, !tbaa !36
  store i32 %3, ptr %8, align 4, !tbaa !36
  %9 = load i32, ptr %6, align 4, !tbaa !36
  %10 = icmp eq i32 %9, 0
  br i1 %10, label %11, label %17

11:                                               ; preds = %4
  %12 = load i32, ptr %7, align 4, !tbaa !36
  %13 = sub nsw i32 0, %12
  %14 = load ptr, ptr %5, align 8, !tbaa !79
  %15 = call i32 @get_ue_golomb(ptr noundef %14)
  %16 = sub nsw i32 %13, %15
  store i32 %16, ptr %6, align 4, !tbaa !36
  br label %32

17:                                               ; preds = %4
  %18 = load i32, ptr %6, align 4, !tbaa !36
  %19 = load i32, ptr %7, align 4, !tbaa !36
  %20 = mul nsw i32 %19, 2
  %21 = icmp eq i32 %18, %20
  br i1 %21, label %22, label %27

22:                                               ; preds = %17
  %23 = load i32, ptr %7, align 4, !tbaa !36
  %24 = load ptr, ptr %5, align 8, !tbaa !79
  %25 = call i32 @get_ue_golomb(ptr noundef %24)
  %26 = add nsw i32 %23, %25
  store i32 %26, ptr %6, align 4, !tbaa !36
  br label %31

27:                                               ; preds = %17
  %28 = load i32, ptr %7, align 4, !tbaa !36
  %29 = load i32, ptr %6, align 4, !tbaa !36
  %30 = sub nsw i32 %29, %28
  store i32 %30, ptr %6, align 4, !tbaa !36
  br label %31

31:                                               ; preds = %27, %22
  br label %32

32:                                               ; preds = %31, %11
  %33 = load i32, ptr %8, align 4, !tbaa !36
  %34 = icmp ne i32 %33, 0
  br i1 %34, label %35, label %43

35:                                               ; preds = %32
  %36 = load i32, ptr %6, align 4, !tbaa !36
  %37 = load i32, ptr %8, align 4, !tbaa !36
  %38 = shl i32 %36, %37
  %39 = load ptr, ptr %5, align 8, !tbaa !79
  %40 = load i32, ptr %8, align 4, !tbaa !36
  %41 = call i32 @get_bits(ptr noundef %39, i32 noundef %40)
  %42 = or i32 %38, %41
  store i32 %42, ptr %6, align 4, !tbaa !36
  br label %43

43:                                               ; preds = %35, %32
  %44 = load i32, ptr %6, align 4, !tbaa !36
  ret i32 %44
}