; Function Attrs: inlinehint mustprogress nofree norecurse nosync nounwind willreturn memory(read, argmem: readwrite, inaccessiblemem: none) uwtable
define internal fastcc i32 @extend_code(ptr noundef nonnull captures(none) %0, i32 noundef range(i32 -32768, 32768) %1, i32 noundef range(i32 6, 128) %2, i32 noundef %3) unnamed_addr #6 {
  %5 = icmp eq i32 %1, 0
  br i1 %5, label %6, label %47

6:                                                ; preds = %4
  %7 = getelementptr inbounds nuw i8, ptr %0, i64 16
  %8 = load i32, ptr %7, align 8, !tbaa !60
  %9 = getelementptr inbounds nuw i8, ptr %0, i64 24
  %10 = load i32, ptr %9, align 8, !tbaa !58
  %11 = load ptr, ptr %0, align 8, !tbaa !55
  %12 = lshr i32 %8, 3
  %13 = zext nneg i32 %12 to i64
  %14 = getelementptr inbounds nuw i8, ptr %11, i64 %13
  %15 = load i32, ptr %14, align 1, !tbaa !29
  %16 = tail call i32 @llvm.bswap.i32(i32 %15)
  %17 = and i32 %8, 7
  %18 = shl i32 %16, %17
  %19 = icmp ugt i32 %18, 134217727
  br i1 %19, label %20, label %30

20:                                               ; preds = %6
  %21 = lshr i32 %18, 23
  %22 = zext nneg i32 %21 to i64
  %23 = getelementptr inbounds nuw [512 x i8], ptr @ff_golomb_vlc_len, i64 0, i64 %22
  %24 = load i8, ptr %23, align 1, !tbaa !29
  %25 = zext i8 %24 to i32
  %26 = add i32 %8, %25
  %..i = tail call i32 @llvm.umin.i32(i32 %10, i32 %26)
  store i32 %..i, ptr %7, align 8, !tbaa !60
  %27 = getelementptr inbounds nuw [512 x i8], ptr @ff_ue_golomb_vlc_code, i64 0, i64 %22
  %28 = load i8, ptr %27, align 1, !tbaa !29
  %29 = zext i8 %28 to i32
  br label %get_ue_golomb.exit

30:                                               ; preds = %6
  %.not.i.i = icmp samesign ult i32 %18, 65536
  %31 = lshr i32 %18, 16
  %spec.select.i.i = select i1 %.not.i.i, i32 %18, i32 %31
  %spec.select12.i.i = select i1 %.not.i.i, i32 0, i32 16
  %.not11.i.i = icmp samesign ult i32 %spec.select.i.i, 256
  %32 = lshr i32 %spec.select.i.i, 8
  %33 = or disjoint i32 %spec.select12.i.i, 8
  %.110.i.i = select i1 %.not11.i.i, i32 %spec.select.i.i, i32 %32
  %.1.i.i = select i1 %.not11.i.i, i32 %spec.select12.i.i, i32 %33
  %34 = zext nneg i32 %.110.i.i to i64
  %35 = getelementptr inbounds nuw [256 x i8], ptr @ff_log2_tab, i64 0, i64 %34
  %36 = load i8, ptr %35, align 1, !tbaa !29
  %37 = zext i8 %36 to i32
  %38 = add nuw nsw i32 %.1.i.i, %37
  %39 = shl nuw nsw i32 %38, 1
  %40 = add nsw i32 %39, -31
  %reass.sub.i = add i32 %8, 63
  %41 = sub i32 %reass.sub.i, %39
  %.38.i = tail call i32 @llvm.umin.i32(i32 %10, i32 %41)
  store i32 %.38.i, ptr %7, align 8, !tbaa !60
  %42 = icmp samesign ult i32 %38, 19
  %43 = lshr i32 %18, %40
  %44 = add nsw i32 %43, -1
  %.1.i = select i1 %42, i32 -1094995529, i32 %44
  br label %get_ue_golomb.exit

get_ue_golomb.exit:                               ; preds = %20, %30
  %.0.i = phi i32 [ %29, %20 ], [ %.1.i, %30 ]
  %45 = add nsw i32 %2, %.0.i
  %46 = sub nsw i32 0, %45
  br label %92

47:                                               ; preds = %4
  %48 = shl nuw nsw i32 %2, 1
  %49 = icmp eq i32 %1, %48
  br i1 %49, label %50, label %90

50:                                               ; preds = %47
  %51 = getelementptr inbounds nuw i8, ptr %0, i64 16
  %52 = load i32, ptr %51, align 8, !tbaa !60
  %53 = getelementptr inbounds nuw i8, ptr %0, i64 24
  %54 = load i32, ptr %53, align 8, !tbaa !58
  %55 = load ptr, ptr %0, align 8, !tbaa !55
  %56 = lshr i32 %52, 3
  %57 = zext nneg i32 %56 to i64
  %58 = getelementptr inbounds nuw i8, ptr %55, i64 %57
  %59 = load i32, ptr %58, align 1, !tbaa !29
  %60 = tail call i32 @llvm.bswap.i32(i32 %59)
  %61 = and i32 %52, 7
  %62 = shl i32 %60, %61
  %63 = icmp ugt i32 %62, 134217727
  br i1 %63, label %64, label %74

64:                                               ; preds = %50
  %65 = lshr i32 %62, 23
  %66 = zext nneg i32 %65 to i64
  %67 = getelementptr inbounds nuw [512 x i8], ptr @ff_golomb_vlc_len, i64 0, i64 %66
  %68 = load i8, ptr %67, align 1, !tbaa !29
  %69 = zext i8 %68 to i32
  %70 = add i32 %52, %69
  %..i26 = tail call i32 @llvm.umin.i32(i32 %54, i32 %70)
  store i32 %..i26, ptr %51, align 8, !tbaa !60
  %71 = getelementptr inbounds nuw [512 x i8], ptr @ff_ue_golomb_vlc_code, i64 0, i64 %66
  %72 = load i8, ptr %71, align 1, !tbaa !29
  %73 = zext i8 %72 to i32
  br label %get_ue_golomb.exit27

74:                                               ; preds = %50
  %.not.i.i16 = icmp samesign ult i32 %62, 65536
  %75 = lshr i32 %62, 16
  %spec.select.i.i17 = select i1 %.not.i.i16, i32 %62, i32 %75
  %spec.select12.i.i18 = select i1 %.not.i.i16, i32 0, i32 16
  %.not11.i.i19 = icmp samesign ult i32 %spec.select.i.i17, 256
  %76 = lshr i32 %spec.select.i.i17, 8
  %77 = or disjoint i32 %spec.select12.i.i18, 8
  %.110.i.i20 = select i1 %.not11.i.i19, i32 %spec.select.i.i17, i32 %76
  %.1.i.i21 = select i1 %.not11.i.i19, i32 %spec.select12.i.i18, i32 %77
  %78 = zext nneg i32 %.110.i.i20 to i64
  %79 = getelementptr inbounds nuw [256 x i8], ptr @ff_log2_tab, i64 0, i64 %78
  %80 = load i8, ptr %79, align 1, !tbaa !29
  %81 = zext i8 %80 to i32
  %82 = add nuw nsw i32 %.1.i.i21, %81
  %83 = shl nuw nsw i32 %82, 1
  %84 = add nsw i32 %83, -31
  %reass.sub.i22 = add i32 %52, 63
  %85 = sub i32 %reass.sub.i22, %83
  %.38.i23 = tail call i32 @llvm.umin.i32(i32 %54, i32 %85)
  store i32 %.38.i23, ptr %51, align 8, !tbaa !60
  %86 = icmp samesign ult i32 %82, 19
  %87 = lshr i32 %62, %84
  %88 = add nsw i32 %87, -1
  %.1.i24 = select i1 %86, i32 -1094995529, i32 %88
  br label %get_ue_golomb.exit27

get_ue_golomb.exit27:                             ; preds = %64, %74
  %.0.i25 = phi i32 [ %73, %64 ], [ %.1.i24, %74 ]
  %89 = add nsw i32 %.0.i25, %2
  br label %92

90:                                               ; preds = %47
  %91 = sub nsw i32 %1, %2
  br label %92

92:                                               ; preds = %get_ue_golomb.exit27, %90, %get_ue_golomb.exit
  %.0 = phi i32 [ %46, %get_ue_golomb.exit ], [ %89, %get_ue_golomb.exit27 ], [ %91, %90 ]
  %.not = icmp eq i32 %3, 0
  br i1 %.not, label %112, label %93

93:                                               ; preds = %92
  %94 = shl i32 %.0, %3
  %95 = getelementptr inbounds nuw i8, ptr %0, i64 16
  %96 = load i32, ptr %95, align 8, !tbaa !60
  %97 = getelementptr inbounds nuw i8, ptr %0, i64 24
  %98 = load i32, ptr %97, align 8, !tbaa !58
  %99 = load ptr, ptr %0, align 8, !tbaa !55
  %100 = lshr i32 %96, 3
  %101 = zext nneg i32 %100 to i64
  %102 = getelementptr inbounds nuw i8, ptr %99, i64 %101
  %103 = load i32, ptr %102, align 1, !tbaa !29
  %104 = tail call i32 @llvm.bswap.i32(i32 %103)
  %105 = and i32 %96, 7
  %106 = shl i32 %104, %105
  %107 = sub nsw i32 32, %3
  %108 = lshr i32 %106, %107
  %109 = add i32 %96, %3
  %110 = tail call i32 @llvm.umin.i32(i32 %98, i32 %109)
  store i32 %110, ptr %95, align 8, !tbaa !60
  %111 = or disjoint i32 %108, %94
  br label %112

112:                                              ; preds = %93, %92
  %.1 = phi i32 [ %111, %93 ], [ %.0, %92 ]
  ret i32 %.1
}